target datalayout = "e-m:e-p270:32:32-p271:32:32-p272:64:64-i64:64-i128:128-f80:128-n8:16:32:64-S128"
target triple = "x86_64-pc-linux-gnu"

; Function Attrs: nounwind uwtable
define hidden i32 @luaO_fb2int(i32 noundef %0) #0 {
  %2 = alloca i32, align 4
  %3 = alloca i32, align 4
  %4 = alloca i32, align 4
  %5 = alloca i32, align 4
  store i32 %0, ptr %3, align 4, !tbaa !4
  call void @llvm.lifetime.start.p0(i64 4, ptr %4) #7
  %6 = load i32, ptr %3, align 4, !tbaa !4
  %7 = ashr i32 %6, 3
  %8 = and i32 %7, 31
  store i32 %8, ptr %4, align 4, !tbaa !4
  %9 = load i32, ptr %4, align 4, !tbaa !4
  %10 = icmp eq i32 %9, 0
  br i1 %10, label %11, label %13

11:                                               ; preds = %1
  %12 = load i32, ptr %3, align 4, !tbaa !4
  store i32 %12, ptr %2, align 4
  store i32 1, ptr %5, align 4
  br label %20

13:                                               ; preds = %1
  %14 = load i32, ptr %3, align 4, !tbaa !4
  %15 = and i32 %14, 7
  %16 = add nsw i32 %15, 8
  %17 = load i32, ptr %4, align 4, !tbaa !4
  %18 = sub nsw i32 %17, 1
  %19 = shl i32 %16, %18
  store i32 %19, ptr %2, align 4
  store i32 1, ptr %5, align 4
  br label %20

20:                                               ; preds = %13, %11
  call void @llvm.lifetime.end.p0(i64 4, ptr %4) #7
  %21 = load i32, ptr %2, align 4
  ret i32 %21
}