; Function Attrs: mustprogress nofree norecurse nosync nounwind willreturn memory(none) uwtable
define hidden i32 @luaO_fb2int(i32 noundef %0) local_unnamed_addr #2 {
  %2 = lshr i32 %0, 3
  %3 = and i32 %2, 31
  %4 = icmp eq i32 %3, 0
  %5 = and i32 %0, 7
  %6 = or disjoint i32 %5, 8
  %7 = add nsw i32 %3, -1
  %8 = shl i32 %6, %7
  %.0 = select i1 %4, i32 %0, i32 %8
  ret i32 %.0
}